target datalayout = "e-m:e-p270:32:32-p271:32:32-p272:64:64-i64:64-i128:128-f80:128-n8:16:32:64-S128"
target triple = "x86_64-pc-linux-gnu"

%"class.cvc5::internal::theory::strings::ModelConsDefault" = type { %"class.cvc5::internal::theory::strings::ModelCons", ptr, ptr }
%"class.cvc5::internal::theory::strings::ModelCons" = type { %"class.cvc5::internal::EnvObj" }
%"class.cvc5::internal::EnvObj" = type { ptr, ptr }

; Function Attrs: mustprogress uwtable
define linkonce_odr hidden void @_ZN4cvc58internal6theory7strings9ModelConsC2ERNS0_3EnvE(ptr noundef nonnull align 8 dereferenceable(16) %0, ptr noundef nonnull align 8 dereferenceable(696) %1) unnamed_addr #4 comdat align 2 {
  %3 = alloca ptr, align 8
  %4 = alloca ptr, align 8
  store ptr %0, ptr %3, align 8, !tbaa !16
  store ptr %1, ptr %4, align 8, !tbaa !8
  %5 = load ptr, ptr %3, align 8
  %6 = load ptr, ptr %4, align 8, !tbaa !8
  call void @_ZN4cvc58internal6EnvObjC2ERNS0_3EnvE(ptr noundef nonnull align 8 dereferenceable(16) %5, ptr noundef nonnull align 8 dereferenceable(696) %6)
  store ptr getelementptr inbounds inrange(-16, 40) ({ [7 x ptr] }, ptr @_ZTVN4cvc58internal6theory7strings9ModelConsE, i32 0, i32 0, i32 2), ptr %5, align 8, !tbaa !14
  ret void
}

; Function Attrs: mustprogress uwtable
define hidden void @_ZN4cvc58internal6theory7strings16ModelConsDefaultC2ERNS0_3EnvERNS2_11SolverStateERNS2_10CoreSolverE(ptr noundef nonnull align 8 dereferenceable(32) %0, ptr noundef nonnull align 8 dereferenceable(696) %1, ptr noundef nonnull align 8 dereferenceable(560) %2, ptr noundef nonnull align 8 dereferenceable(608) %3) unnamed_addr #4 align 2 {
  %5 = alloca ptr, align 8
  %6 = alloca ptr, align 8
  %7 = alloca ptr, align 8
  %8 = alloca ptr, align 8
  store ptr %0, ptr %5, align 8, !tbaa !3
  store ptr %1, ptr %6, align 8, !tbaa !8
  store ptr %2, ptr %7, align 8, !tbaa !10
  store ptr %3, ptr %8, align 8, !tbaa !12
  %9 = load ptr, ptr %5, align 8
  %10 = load ptr, ptr %6, align 8, !tbaa !8
  call void @_ZN4cvc58internal6theory7strings9ModelConsC2ERNS0_3EnvE(ptr noundef nonnull align 8 dereferenceable(16) %9, ptr noundef nonnull align 8 dereferenceable(696) %10)
  store ptr getelementptr inbounds inrange(-16, 40) ({ [7 x ptr] }, ptr @_ZTVN4cvc58internal6theory7strings16ModelConsDefaultE, i32 0, i32 0, i32 2), ptr %9, align 8, !tbaa !14
  %11 = getelementptr inbounds nuw %"class.cvc5::internal::theory::strings::ModelConsDefault", ptr %9, i32 0, i32 1
  %12 = load ptr, ptr %7, align 8, !tbaa !10
  store ptr %12, ptr %11, align 8, !tbaa !10
  %13 = getelementptr inbounds nuw %"class.cvc5::internal::theory::strings::ModelConsDefault", ptr %9, i32 0, i32 2
  %14 = load ptr, ptr %8, align 8, !tbaa !12
  store ptr %14, ptr %13, align 8, !tbaa !12
  ret void
}