; Function Attrs: mustprogress uwtable
define hidden void @_ZN4cvc58internal6theory7strings16ModelConsDefaultC2ERNS0_3EnvERNS2_11SolverStateERNS2_10CoreSolverE(ptr noundef nonnull align 8 dereferenceable(32) %0, ptr noundef nonnull align 8 dereferenceable(696) %1, ptr noundef nonnull align 8 dereferenceable(560) %2, ptr noundef nonnull align 8 dereferenceable(608) %3) unnamed_addr #3 align 2 {
  tail call void @_ZN4cvc58internal6EnvObjC2ERNS0_3EnvE(ptr noundef nonnull align 8 dereferenceable(16) %0, ptr noundef nonnull align 8 dereferenceable(696) %1)
  store ptr getelementptr inbounds nuw inrange(-16, 40) (i8, ptr @_ZTVN4cvc58internal6theory7strings16ModelConsDefaultE, i64 16), ptr %0, align 8, !tbaa !3
  %5 = getelementptr inbounds nuw i8, ptr %0, i64 16
  store ptr %2, ptr %5, align 8, !tbaa !6
  %6 = getelementptr inbounds nuw i8, ptr %0, i64 24
  store ptr %3, ptr %6, align 8, !tbaa !10
  ret void
}